; Function Attrs: nofree norecurse nosync nounwind memory(readwrite, inaccessiblemem: none) uwtable
define internal noundef i32 @lut2_8_16_8(ptr noundef readonly captures(none) %0, ptr noundef readonly captures(none) %1, i32 noundef %2, i32 noundef %3) #6 {
  %5 = getelementptr inbounds nuw i8, ptr %0, i64 72
  %6 = load ptr, ptr %5, align 8, !tbaa !4
  %7 = load ptr, ptr %1, align 8, !tbaa !81
  %8 = getelementptr inbounds nuw i8, ptr %1, i64 8
  %9 = load ptr, ptr %8, align 8, !tbaa !83
  %10 = getelementptr inbounds nuw i8, ptr %1, i64 16
  %11 = load ptr, ptr %10, align 8, !tbaa !84
  %12 = getelementptr inbounds nuw i8, ptr %6, i64 360
  %13 = load i32, ptr %12, align 8, !tbaa !65
  %14 = icmp sgt i32 %13, 0
  br i1 %14, label %.lr.ph72, label %._crit_edge73

.lr.ph72:                                         ; preds = %4
  %15 = getelementptr inbounds nuw i8, ptr %6, i64 104
  %16 = load i32, ptr %15, align 8, !tbaa !32
  %17 = getelementptr inbounds nuw i8, ptr %6, i64 304
  %18 = add nsw i32 %2, 1
  %19 = getelementptr inbounds nuw i8, ptr %6, i64 224
  %20 = getelementptr inbounds nuw i8, ptr %7, i64 64
  %21 = getelementptr inbounds nuw i8, ptr %9, i64 64
  %22 = getelementptr inbounds nuw i8, ptr %11, i64 64
  %23 = getelementptr inbounds nuw i8, ptr %6, i64 288
  %24 = getelementptr inbounds nuw i8, ptr %6, i64 368
  %notmask.i = shl nsw i32 -1, %16
  %25 = xor i32 %notmask.i, -1
  br label %26

26:                                               ; preds = %.lr.ph72, %._crit_edge69
  %27 = phi i32 [ %13, %.lr.ph72 ], [ %97, %._crit_edge69 ]
  %indvars.iv76 = phi i64 [ 0, %.lr.ph72 ], [ %indvars.iv.next77, %._crit_edge69 ]
  %28 = getelementptr inbounds nuw [4 x i32], ptr %17, i64 0, i64 %indvars.iv76
  %29 = load i32, ptr %28, align 4, !tbaa !54
  %30 = mul nsw i32 %29, %2
  %31 = sdiv i32 %30, %3
  %32 = mul nsw i32 %29, %18
  %33 = sdiv i32 %32, %3
  %34 = getelementptr inbounds nuw [4 x ptr], ptr %19, i64 0, i64 %indvars.iv76
  %35 = load ptr, ptr %34, align 8, !tbaa !93
  %36 = getelementptr inbounds nuw [8 x i32], ptr %20, i64 0, i64 %indvars.iv76
  %37 = getelementptr inbounds nuw [8 x i32], ptr %21, i64 0, i64 %indvars.iv76
  %38 = getelementptr inbounds nuw [8 x i32], ptr %22, i64 0, i64 %indvars.iv76
  %39 = icmp slt i32 %31, %33
  br i1 %39, label %.preheader.lr.ph, label %._crit_edge69

.preheader.lr.ph:                                 ; preds = %26
  %40 = getelementptr inbounds nuw [4 x i32], ptr %23, i64 0, i64 %indvars.iv76
  %41 = load i32, ptr %40, align 4, !tbaa !54
  %42 = icmp sgt i32 %41, 0
  br i1 %42, label %.preheader.preheader, label %._crit_edge69

.preheader.preheader:                             ; preds = %.preheader.lr.ph
  %43 = getelementptr inbounds nuw [8 x ptr], ptr %7, i64 0, i64 %indvars.iv76
  %44 = load ptr, ptr %43, align 8, !tbaa !96
  %45 = load i32, ptr %36, align 4, !tbaa !54
  %46 = mul nsw i32 %45, %31
  %47 = sext i32 %46 to i64
  %48 = getelementptr inbounds i8, ptr %44, i64 %47
  %49 = getelementptr inbounds nuw [8 x ptr], ptr %11, i64 0, i64 %indvars.iv76
  %50 = load ptr, ptr %49, align 8, !tbaa !96
  %51 = load i32, ptr %38, align 4, !tbaa !54
  %52 = mul nsw i32 %51, %31
  %53 = sext i32 %52 to i64
  %54 = getelementptr inbounds i8, ptr %50, i64 %53
  %55 = getelementptr inbounds nuw [8 x ptr], ptr %9, i64 0, i64 %indvars.iv76
  %56 = load ptr, ptr %55, align 8, !tbaa !96
  %57 = load i32, ptr %37, align 4, !tbaa !54
  %58 = mul nsw i32 %57, %31
  %59 = sext i32 %58 to i64
  %60 = getelementptr inbounds i8, ptr %56, i64 %59
  br label %.preheader

.preheader:                                       ; preds = %.preheader.preheader, %._crit_edge
  %61 = phi i32 [ %85, %._crit_edge ], [ %51, %.preheader.preheader ]
  %62 = phi i32 [ %86, %._crit_edge ], [ %57, %.preheader.preheader ]
  %63 = phi i32 [ %87, %._crit_edge ], [ %45, %.preheader.preheader ]
  %64 = phi i32 [ %88, %._crit_edge ], [ %41, %.preheader.preheader ]
  %.068 = phi ptr [ %90, %._crit_edge ], [ %48, %.preheader.preheader ]
  %.05967 = phi ptr [ %95, %._crit_edge ], [ %54, %.preheader.preheader ]
  %.06066 = phi ptr [ %93, %._crit_edge ], [ %60, %.preheader.preheader ]
  %.06265 = phi i32 [ %96, %._crit_edge ], [ %31, %.preheader.preheader ]
  %65 = icmp sgt i32 %64, 0
  br i1 %65, label %.lr.ph, label %._crit_edge

.lr.ph:                                           ; preds = %.preheader, %.lr.ph
  %indvars.iv = phi i64 [ %indvars.iv.next, %.lr.ph ], [ 0, %.preheader ]
  %66 = getelementptr inbounds nuw i8, ptr %.05967, i64 %indvars.iv
  %67 = load i8, ptr %66, align 1, !tbaa !105
  %68 = zext i8 %67 to i32
  %69 = load i32, ptr %24, align 8, !tbaa !60
  %70 = shl i32 %68, %69
  %71 = getelementptr inbounds nuw i16, ptr %.06066, i64 %indvars.iv
  %72 = load i16, ptr %71, align 2, !tbaa !97
  %73 = zext i16 %72 to i32
  %74 = or i32 %70, %73
  %75 = sext i32 %74 to i64
  %76 = getelementptr inbounds i16, ptr %35, i64 %75
  %77 = load i16, ptr %76, align 2, !tbaa !97
  %78 = zext i16 %77 to i32
  %79 = and i32 %notmask.i, %78
  %.not.i = icmp eq i32 %79, 0
  %.0.i = select i1 %.not.i, i32 %78, i32 %25
  %80 = trunc i32 %.0.i to i8
  %81 = getelementptr inbounds nuw i8, ptr %.068, i64 %indvars.iv
  store i8 %80, ptr %81, align 1, !tbaa !105
  %indvars.iv.next = add nuw nsw i64 %indvars.iv, 1
  %82 = load i32, ptr %40, align 4, !tbaa !54
  %83 = sext i32 %82 to i64
  %84 = icmp slt i64 %indvars.iv.next, %83
  br i1 %84, label %.lr.ph, label %._crit_edge.loopexit, !llvm.loop !119

._crit_edge.loopexit:                             ; preds = %.lr.ph
  %.pre = load i32, ptr %36, align 4, !tbaa !54
  %.pre79 = load i32, ptr %37, align 4, !tbaa !54
  %.pre80 = load i32, ptr %38, align 4, !tbaa !54
  br label %._crit_edge

._crit_edge:                                      ; preds = %._crit_edge.loopexit, %.preheader
  %85 = phi i32 [ %.pre80, %._crit_edge.loopexit ], [ %61, %.preheader ]
  %86 = phi i32 [ %.pre79, %._crit_edge.loopexit ], [ %62, %.preheader ]
  %87 = phi i32 [ %.pre, %._crit_edge.loopexit ], [ %63, %.preheader ]
  %88 = phi i32 [ %82, %._crit_edge.loopexit ], [ %64, %.preheader ]
  %89 = sext i32 %87 to i64
  %90 = getelementptr inbounds i8, ptr %.068, i64 %89
  %91 = sdiv i32 %86, 2
  %92 = sext i32 %91 to i64
  %93 = getelementptr inbounds i16, ptr %.06066, i64 %92
  %94 = sext i32 %85 to i64
  %95 = getelementptr inbounds i8, ptr %.05967, i64 %94
  %96 = add nsw i32 %.06265, 1
  %exitcond.not = icmp eq i32 %96, %33
  br i1 %exitcond.not, label %._crit_edge69.loopexit, label %.preheader, !llvm.loop !120

._crit_edge69.loopexit:                           ; preds = %._crit_edge
  %.pre81 = load i32, ptr %12, align 8, !tbaa !65
  br label %._crit_edge69

._crit_edge69:                                    ; preds = %.preheader.lr.ph, %._crit_edge69.loopexit, %26
  %97 = phi i32 [ %.pre81, %._crit_edge69.loopexit ], [ %27, %26 ], [ %27, %.preheader.lr.ph ]
  %indvars.iv.next77 = add nuw nsw i64 %indvars.iv76, 1
  %98 = sext i32 %97 to i64
  %99 = icmp slt i64 %indvars.iv.next77, %98
  br i1 %99, label %26, label %._crit_edge73, !llvm.loop !121

._crit_edge73:                                    ; preds = %._crit_edge69, %4
  ret i32 0
}